target datalayout = "e-m:e-p270:32:32-p271:32:32-p272:64:64-i64:64-i128:128-f80:128-n8:16:32:64-S128"
target triple = "x86_64-pc-linux-gnu"

%struct.TupleDescData = type { i32, i32, i32, i32, ptr, [0 x %struct.CompactAttribute] }
%struct.CompactAttribute = type { i32, i16, i8, i8, i8, i8, i8, i8, i8 }
%struct.ExpandedRecordHeader = type { %struct.ExpandedObjectHeader, i32, i32, i32, i32, i32, ptr, i64, ptr, ptr, i32, i64, i64, i32, i8, ptr, ptr, ptr, ptr, ptr, ptr, %struct.MemoryContextCallback }
%struct.ExpandedObjectHeader = type { i32, ptr, ptr, [10 x i8], [10 x i8] }
%struct.MemoryContextCallback = type { ptr, ptr, ptr }
%struct.FormData_pg_attribute = type { i32, %struct.nameData, i32, i16, i16, i32, i16, i8, i8, i8, i8, i8, i8, i8, i8, i8, i8, i8, i16, i32 }
%struct.nameData = type { [64 x i8] }
%struct.ExpandedRecordFieldInfo = type { i32, i32, i32, i32 }

; Function Attrs: inlinehint nounwind uwtable
define internal ptr @TupleDescAttr(ptr noundef %0, i32 noundef %1) #5 {
  %3 = alloca ptr, align 8
  %4 = alloca i32, align 4
  %5 = alloca ptr, align 8
  store ptr %0, ptr %3, align 8
  store i32 %1, ptr %4, align 4
  call void @llvm.lifetime.start.p0(i64 8, ptr %5) #9
  %6 = load ptr, ptr %3, align 8
  %7 = load ptr, ptr %3, align 8
  %8 = getelementptr inbounds nuw %struct.TupleDescData, ptr %7, i32 0, i32 0
  %9 = load i32, ptr %8, align 8
  %10 = sext i32 %9 to i64
  %11 = mul i64 %10, 16
  %12 = add i64 24, %11
  %13 = getelementptr inbounds nuw i8, ptr %6, i64 %12
  store ptr %13, ptr %5, align 8
  %14 = load ptr, ptr %5, align 8
  %15 = load i32, ptr %4, align 4
  %16 = sext i32 %15 to i64
  %17 = getelementptr inbounds %struct.FormData_pg_attribute, ptr %14, i64 %16
  call void @llvm.lifetime.end.p0(i64 8, ptr %5) #9
  ret ptr %17
}

; Function Attrs: inlinehint nounwind uwtable
define internal ptr @expanded_record_get_tupdesc(ptr noundef %0) #5 {
  %2 = alloca ptr, align 8
  %3 = alloca ptr, align 8
  store ptr %0, ptr %3, align 8
  %4 = load ptr, ptr %3, align 8
  %5 = getelementptr inbounds nuw %struct.ExpandedRecordHeader, ptr %4, i32 0, i32 6
  %6 = load ptr, ptr %5, align 8
  %7 = icmp ne ptr %6, null
  %8 = zext i1 %7 to i32
  %9 = icmp ne i32 %8, 0
  %10 = zext i1 %9 to i32
  %11 = sext i32 %10 to i64
  %12 = call i64 @llvm.expect.i64(i64 %11, i64 1)
  %13 = icmp ne i64 %12, 0
  br i1 %13, label %14, label %18

14:                                               ; preds = %1
  %15 = load ptr, ptr %3, align 8
  %16 = getelementptr inbounds nuw %struct.ExpandedRecordHeader, ptr %15, i32 0, i32 6
  %17 = load ptr, ptr %16, align 8
  store ptr %17, ptr %2, align 8
  br label %21

18:                                               ; preds = %1
  %19 = load ptr, ptr %3, align 8
  %20 = call ptr @expanded_record_fetch_tupdesc(ptr noundef %19)
  store ptr %20, ptr %2, align 8
  br label %21

21:                                               ; preds = %18, %14
  %22 = load ptr, ptr %2, align 8
  ret ptr %22
}

; Function Attrs: nounwind uwtable
define dso_local zeroext i1 @expanded_record_lookup_field(ptr noundef %0, ptr noundef %1, ptr noundef %2) #0 {
  %4 = alloca i1, align 1
  %5 = alloca ptr, align 8
  %6 = alloca ptr, align 8
  %7 = alloca ptr, align 8
  %8 = alloca ptr, align 8
  %9 = alloca i32, align 4
  %10 = alloca ptr, align 8
  %11 = alloca ptr, align 8
  %12 = alloca i32, align 4
  store ptr %0, ptr %5, align 8
  store ptr %1, ptr %6, align 8
  store ptr %2, ptr %7, align 8
  call void @llvm.lifetime.start.p0(i64 8, ptr %8) #9
  call void @llvm.lifetime.start.p0(i64 4, ptr %9) #9
  call void @llvm.lifetime.start.p0(i64 8, ptr %10) #9
  call void @llvm.lifetime.start.p0(i64 8, ptr %11) #9
  %13 = load ptr, ptr %5, align 8
  %14 = call ptr @expanded_record_get_tupdesc(ptr noundef %13)
  store ptr %14, ptr %8, align 8
  store i32 0, ptr %9, align 4
  br label %15

15:                                               ; preds = %58, %3
  %16 = load i32, ptr %9, align 4
  %17 = load ptr, ptr %8, align 8
  %18 = getelementptr inbounds nuw %struct.TupleDescData, ptr %17, i32 0, i32 0
  %19 = load i32, ptr %18, align 8
  %20 = icmp slt i32 %16, %19
  br i1 %20, label %21, label %61

21:                                               ; preds = %15
  %22 = load ptr, ptr %8, align 8
  %23 = load i32, ptr %9, align 4
  %24 = call ptr @TupleDescAttr(ptr noundef %22, i32 noundef %23)
  store ptr %24, ptr %10, align 8
  %25 = load ptr, ptr %10, align 8
  %26 = getelementptr inbounds nuw %struct.FormData_pg_attribute, ptr %25, i32 0, i32 1
  %27 = load ptr, ptr %6, align 8
  %28 = call i32 @namestrcmp(ptr noundef %26, ptr noundef %27)
  %29 = icmp eq i32 %28, 0
  br i1 %29, label %30, label %57

30:                                               ; preds = %21
  %31 = load ptr, ptr %10, align 8
  %32 = getelementptr inbounds nuw %struct.FormData_pg_attribute, ptr %31, i32 0, i32 16
  %33 = load i8, ptr %32, align 1, !range !4, !noundef !5
  %34 = trunc i8 %33 to i1
  br i1 %34, label %57, label %35

35:                                               ; preds = %30
  %36 = load ptr, ptr %10, align 8
  %37 = getelementptr inbounds nuw %struct.FormData_pg_attribute, ptr %36, i32 0, i32 4
  %38 = load i16, ptr %37, align 2
  %39 = sext i16 %38 to i32
  %40 = load ptr, ptr %7, align 8
  %41 = getelementptr inbounds nuw %struct.ExpandedRecordFieldInfo, ptr %40, i32 0, i32 0
  store i32 %39, ptr %41, align 4
  %42 = load ptr, ptr %10, align 8
  %43 = getelementptr inbounds nuw %struct.FormData_pg_attribute, ptr %42, i32 0, i32 2
  %44 = load i32, ptr %43, align 4
  %45 = load ptr, ptr %7, align 8
  %46 = getelementptr inbounds nuw %struct.ExpandedRecordFieldInfo, ptr %45, i32 0, i32 1
  store i32 %44, ptr %46, align 4
  %47 = load ptr, ptr %10, align 8
  %48 = getelementptr inbounds nuw %struct.FormData_pg_attribute, ptr %47, i32 0, i32 5
  %49 = load i32, ptr %48, align 4
  %50 = load ptr, ptr %7, align 8
  %51 = getelementptr inbounds nuw %struct.ExpandedRecordFieldInfo, ptr %50, i32 0, i32 2
  store i32 %49, ptr %51, align 4
  %52 = load ptr, ptr %10, align 8
  %53 = getelementptr inbounds nuw %struct.FormData_pg_attribute, ptr %52, i32 0, i32 19
  %54 = load i32, ptr %53, align 4
  %55 = load ptr, ptr %7, align 8
  %56 = getelementptr inbounds nuw %struct.ExpandedRecordFieldInfo, ptr %55, i32 0, i32 3
  store i32 %54, ptr %56, align 4
  store i1 true, ptr %4, align 1
  store i32 1, ptr %12, align 4
  br label %89

57:                                               ; preds = %30, %21
  br label %58

58:                                               ; preds = %57
  %59 = load i32, ptr %9, align 4
  %60 = add i32 %59, 1
  store i32 %60, ptr %9, align 4
  br label %15, !llvm.loop !8

61:                                               ; preds = %15
  %62 = load ptr, ptr %6, align 8
  %63 = call ptr @SystemAttributeByName(ptr noundef %62)
  store ptr %63, ptr %11, align 8
  %64 = load ptr, ptr %11, align 8
  %65 = icmp ne ptr %64, null
  br i1 %65, label %66, label %88

66:                                               ; preds = %61
  %67 = load ptr, ptr %11, align 8
  %68 = getelementptr inbounds nuw %struct.FormData_pg_attribute, ptr %67, i32 0, i32 4
  %69 = load i16, ptr %68, align 2
  %70 = sext i16 %69 to i32
  %71 = load ptr, ptr %7, align 8
  %72 = getelementptr inbounds nuw %struct.ExpandedRecordFieldInfo, ptr %71, i32 0, i32 0
  store i32 %70, ptr %72, align 4
  %73 = load ptr, ptr %11, align 8
  %74 = getelementptr inbounds nuw %struct.FormData_pg_attribute, ptr %73, i32 0, i32 2
  %75 = load i32, ptr %74, align 4
  %76 = load ptr, ptr %7, align 8
  %77 = getelementptr inbounds nuw %struct.ExpandedRecordFieldInfo, ptr %76, i32 0, i32 1
  store i32 %75, ptr %77, align 4
  %78 = load ptr, ptr %11, align 8
  %79 = getelementptr inbounds nuw %struct.FormData_pg_attribute, ptr %78, i32 0, i32 5
  %80 = load i32, ptr %79, align 4
  %81 = load ptr, ptr %7, align 8
  %82 = getelementptr inbounds nuw %struct.ExpandedRecordFieldInfo, ptr %81, i32 0, i32 2
  store i32 %80, ptr %82, align 4
  %83 = load ptr, ptr %11, align 8
  %84 = getelementptr inbounds nuw %struct.FormData_pg_attribute, ptr %83, i32 0, i32 19
  %85 = load i32, ptr %84, align 4
  %86 = load ptr, ptr %7, align 8
  %87 = getelementptr inbounds nuw %struct.ExpandedRecordFieldInfo, ptr %86, i32 0, i32 3
  store i32 %85, ptr %87, align 4
  store i1 true, ptr %4, align 1
  store i32 1, ptr %12, align 4
  br label %89

88:                                               ; preds = %61
  store i1 false, ptr %4, align 1
  store i32 1, ptr %12, align 4
  br label %89

89:                                               ; preds = %88, %66, %35
  call void @llvm.lifetime.end.p0(i64 8, ptr %11) #9
  call void @llvm.lifetime.end.p0(i64 8, ptr %10) #9
  call void @llvm.lifetime.end.p0(i64 4, ptr %9) #9
  call void @llvm.lifetime.end.p0(i64 8, ptr %8) #9
  %90 = load i1, ptr %4, align 1
  ret i1 %90
}