; Function Attrs: nounwind uwtable
define dso_local noundef zeroext i1 @expanded_record_lookup_field(ptr noundef %0, ptr noundef %1, ptr noundef writeonly captures(none) %2) local_unnamed_addr #0 {
  %4 = getelementptr inbounds nuw i8, ptr %0, i64 72
  %5 = load ptr, ptr %4, align 8
  %.not.i = icmp eq ptr %5, null
  br i1 %.not.i, label %6, label %expanded_record_get_tupdesc.exit, !prof !4

6:                                                ; preds = %3
  %7 = tail call ptr @expanded_record_fetch_tupdesc(ptr noundef nonnull %0)
  br label %expanded_record_get_tupdesc.exit

expanded_record_get_tupdesc.exit:                 ; preds = %3, %6
  %.0.i = phi ptr [ %7, %6 ], [ %5, %3 ]
  %invariant.gep = getelementptr i8, ptr %.0.i, i64 24
  %8 = load i32, ptr %.0.i, align 8
  %9 = icmp sgt i32 %8, 0
  br i1 %9, label %.lr.ph, label %._crit_edge

.lr.ph:                                           ; preds = %expanded_record_get_tupdesc.exit, %21
  %indvars.iv = phi i64 [ %indvars.iv.next, %21 ], [ 0, %expanded_record_get_tupdesc.exit ]
  %10 = phi i32 [ %22, %21 ], [ %8, %expanded_record_get_tupdesc.exit ]
  %11 = sext i32 %10 to i64
  %12 = shl nsw i64 %11, 4
  %gep = getelementptr i8, ptr %invariant.gep, i64 %12
  %13 = getelementptr inbounds nuw %struct.FormData_pg_attribute, ptr %gep, i64 %indvars.iv
  %14 = getelementptr inbounds nuw i8, ptr %13, i64 4
  %15 = tail call i32 @namestrcmp(ptr noundef nonnull %14, ptr noundef %1) #8
  %16 = icmp eq i32 %15, 0
  br i1 %16, label %17, label %21

17:                                               ; preds = %.lr.ph
  %18 = getelementptr inbounds nuw i8, ptr %13, i64 91
  %19 = load i8, ptr %18, align 1, !range !5, !noundef !6
  %20 = trunc nuw i8 %19 to i1
  br i1 %20, label %21, label %.sink.split

21:                                               ; preds = %.lr.ph, %17
  %indvars.iv.next = add nuw nsw i64 %indvars.iv, 1
  %22 = load i32, ptr %.0.i, align 8
  %23 = sext i32 %22 to i64
  %24 = icmp slt i64 %indvars.iv.next, %23
  br i1 %24, label %.lr.ph, label %._crit_edge, !llvm.loop !9

._crit_edge:                                      ; preds = %21, %expanded_record_get_tupdesc.exit
  %25 = tail call ptr @SystemAttributeByName(ptr noundef %1) #8
  %.not = icmp eq ptr %25, null
  br i1 %.not, label %38, label %.sink.split

.sink.split:                                      ; preds = %17, %._crit_edge
  %.sink46 = phi ptr [ %25, %._crit_edge ], [ %13, %17 ]
  %26 = getelementptr inbounds nuw i8, ptr %.sink46, i64 74
  %27 = load i16, ptr %26, align 2
  %28 = sext i16 %27 to i32
  store i32 %28, ptr %2, align 4
  %29 = getelementptr inbounds nuw i8, ptr %.sink46, i64 68
  %30 = load i32, ptr %29, align 4
  %31 = getelementptr inbounds nuw i8, ptr %2, i64 4
  store i32 %30, ptr %31, align 4
  %32 = getelementptr inbounds nuw i8, ptr %.sink46, i64 76
  %33 = load i32, ptr %32, align 4
  %34 = getelementptr inbounds nuw i8, ptr %2, i64 8
  store i32 %33, ptr %34, align 4
  %35 = getelementptr inbounds nuw i8, ptr %.sink46, i64 96
  %36 = load i32, ptr %35, align 4
  %37 = getelementptr inbounds nuw i8, ptr %2, i64 12
  store i32 %36, ptr %37, align 4
  br label %38

38:                                               ; preds = %.sink.split, %._crit_edge
  %.0 = phi i1 [ false, %._crit_edge ], [ true, %.sink.split ]
  ret i1 %.0
}